; Function Attrs: mustprogress nofree norecurse nosync nounwind memory(read, argmem: readwrite, inaccessiblemem: none) uwtable
define internal fastcc noundef ptr @_ZL8_findRowP13UPropsVectorsi(ptr noundef captures(none) %0, i32 noundef range(i32 0, -2147483648) %1) unnamed_addr #5 {
  %3 = getelementptr inbounds nuw i8, ptr %0, i64 8
  %4 = load i32, ptr %3, align 8, !tbaa !12
  %5 = getelementptr inbounds nuw i8, ptr %0, i64 16
  %6 = load i32, ptr %5, align 8, !tbaa !14
  %7 = getelementptr inbounds nuw i8, ptr %0, i64 20
  %8 = load i32, ptr %7, align 4, !tbaa !19
  %9 = load ptr, ptr %0, align 8, !tbaa !7
  %10 = mul nsw i32 %8, %4
  %11 = sext i32 %10 to i64
  %12 = getelementptr inbounds i32, ptr %9, i64 %11
  %13 = load i32, ptr %12, align 4, !tbaa !15
  %.not = icmp slt i32 %1, %13
  br i1 %.not, label %44, label %14

14:                                               ; preds = %2
  %15 = getelementptr inbounds nuw i8, ptr %12, i64 4
  %16 = load i32, ptr %15, align 4, !tbaa !15
  %17 = icmp slt i32 %1, %16
  br i1 %17, label %69, label %18

18:                                               ; preds = %14
  %19 = sext i32 %4 to i64
  %20 = getelementptr inbounds i32, ptr %12, i64 %19
  %21 = getelementptr inbounds nuw i8, ptr %20, i64 4
  %22 = load i32, ptr %21, align 4, !tbaa !15
  %23 = icmp slt i32 %1, %22
  br i1 %23, label %24, label %26

24:                                               ; preds = %18
  %25 = add nsw i32 %8, 1
  store i32 %25, ptr %7, align 4, !tbaa !19
  br label %69

26:                                               ; preds = %18
  %27 = getelementptr inbounds i32, ptr %20, i64 %19
  %28 = getelementptr inbounds nuw i8, ptr %27, i64 4
  %29 = load i32, ptr %28, align 4, !tbaa !15
  %30 = icmp slt i32 %1, %29
  br i1 %30, label %31, label %33

31:                                               ; preds = %26
  %32 = add nsw i32 %8, 2
  store i32 %32, ptr %7, align 4, !tbaa !19
  br label %69

33:                                               ; preds = %26
  %34 = sub nsw i32 %1, %29
  %35 = icmp slt i32 %34, 10
  br i1 %35, label %36, label %49

36:                                               ; preds = %33
  %37 = add nsw i32 %8, 2
  br label %38

38:                                               ; preds = %38, %36
  %.063 = phi ptr [ %27, %36 ], [ %40, %38 ]
  %.0 = phi i32 [ %37, %36 ], [ %39, %38 ]
  %39 = add nsw i32 %.0, 1
  %40 = getelementptr inbounds i32, ptr %.063, i64 %19
  %41 = getelementptr inbounds nuw i8, ptr %40, i64 4
  %42 = load i32, ptr %41, align 4, !tbaa !15
  %.not66 = icmp slt i32 %1, %42
  br i1 %.not66, label %43, label %38, !llvm.loop !21

43:                                               ; preds = %38
  store i32 %39, ptr %7, align 4, !tbaa !19
  br label %69

44:                                               ; preds = %2
  %45 = getelementptr inbounds nuw i8, ptr %9, i64 4
  %46 = load i32, ptr %45, align 4, !tbaa !15
  %47 = icmp slt i32 %1, %46
  br i1 %47, label %48, label %49

48:                                               ; preds = %44
  store i32 0, ptr %7, align 4, !tbaa !19
  br label %69

49:                                               ; preds = %44, %33
  %50 = icmp sgt i32 %6, 1
  br i1 %50, label %.lr.ph, label %._crit_edge

.lr.ph:                                           ; preds = %49, %63
  %.05972 = phi i32 [ %.1, %63 ], [ %6, %49 ]
  %.06071 = phi i32 [ %.161, %63 ], [ 0, %49 ]
  %51 = add nsw i32 %.05972, %.06071
  %52 = sdiv i32 %51, 2
  %53 = mul nsw i32 %52, %4
  %54 = sext i32 %53 to i64
  %55 = getelementptr inbounds i32, ptr %9, i64 %54
  %56 = load i32, ptr %55, align 4, !tbaa !15
  %57 = icmp slt i32 %1, %56
  br i1 %57, label %63, label %58

58:                                               ; preds = %.lr.ph
  %59 = getelementptr inbounds nuw i8, ptr %55, i64 4
  %60 = load i32, ptr %59, align 4, !tbaa !15
  %61 = icmp slt i32 %1, %60
  br i1 %61, label %62, label %63

62:                                               ; preds = %58
  store i32 %52, ptr %7, align 4, !tbaa !19
  br label %69

63:                                               ; preds = %58, %.lr.ph
  %.161 = phi i32 [ %.06071, %.lr.ph ], [ %52, %58 ]
  %.1 = phi i32 [ %52, %.lr.ph ], [ %.05972, %58 ]
  %64 = add nsw i32 %.1, -1
  %65 = icmp slt i32 %.161, %64
  br i1 %65, label %.lr.ph, label %._crit_edge, !llvm.loop !22

._crit_edge:                                      ; preds = %63, %49
  %.060.lcssa = phi i32 [ 0, %49 ], [ %.161, %63 ]
  store i32 %.060.lcssa, ptr %7, align 4, !tbaa !19
  %66 = mul nsw i32 %.060.lcssa, %4
  %67 = sext i32 %66 to i64
  %68 = getelementptr inbounds i32, ptr %9, i64 %67
  br label %69

69:                                               ; preds = %14, %._crit_edge, %62, %48, %43, %31, %24
  %.062 = phi ptr [ %20, %24 ], [ %27, %31 ], [ %40, %43 ], [ %55, %62 ], [ %68, %._crit_edge ], [ %9, %48 ], [ %12, %14 ]
  ret ptr %.062
}